target datalayout = "e-m:e-p270:32:32-p271:32:32-p272:64:64-i64:64-i128:128-f80:128-n8:16:32:64-S128"
target triple = "x86_64-pc-linux-gnu"

%struct.expert_field = type { i32, i32 }

@hf_pcep_rp_flags_reserved = internal global i32 0, align 4
@hf_pcep_rp_flags_pri = internal global i32 0, align 4
@hf_pcep_rp_flags_r = internal global i32 0, align 4
@hf_pcep_rp_flags_b = internal global i32 0, align 4
@hf_pcep_rp_flags_o = internal global i32 0, align 4
@hf_pcep_rp_flags_v = internal global i32 0, align 4
@hf_pcep_rp_flags_s = internal global i32 0, align 4
@hf_pcep_rp_flags_p = internal global i32 0, align 4
@hf_pcep_rp_flags_d = internal global i32 0, align 4
@hf_pcep_rp_flags_m = internal global i32 0, align 4
@hf_pcep_rp_flags_e = internal global i32 0, align 4
@hf_pcep_rp_flags_n = internal global i32 0, align 4
@hf_pcep_rp_flags_f = internal global i32 0, align 4
@hf_pcep_rp_flags_c = internal global i32 0, align 4
@hf_pcep_rp_obj_reserved = internal global i32 0, align 4
@hf_pcep_rp_obj_flags = internal global i32 0, align 4
@hf_pcep_rp_obj_requested_id_number = internal global i32 0, align 4
@ett_pcep_obj_request_parameters = internal global i32 0, align 4
@ei_pcep_subobject_bad_length = internal global %struct.expert_field zeroinitializer, align 4
@.str.1144 = private unnamed_addr constant [41 x i8] c"Bad RP object length %u, should be >= %u\00", align 1

; Function Attrs: null_pointer_is_valid sspstrong uwtable
define internal void @dissect_pcep_tlvs(ptr noundef %0, ptr noundef %1, i32 noundef %2, i32 noundef %3, i32 noundef %4) #0 {
  %6 = alloca ptr, align 8
  %7 = alloca ptr, align 8
  %8 = alloca i32, align 4
  %9 = alloca i32, align 4
  %10 = alloca i32, align 4
  store ptr %0, ptr %6, align 8
  store ptr %1, ptr %7, align 8
  store i32 %2, ptr %8, align 4
  store i32 %3, ptr %9, align 4
  store i32 %4, ptr %10, align 4
  %11 = load ptr, ptr %6, align 8
  %12 = load ptr, ptr %7, align 8
  %13 = load i32, ptr %8, align 4
  %14 = load i32, ptr %9, align 4
  %15 = load i32, ptr %10, align 4
  call void @dissect_pcep_tlvs_with_scope(ptr noundef %11, ptr noundef %12, i32 noundef %13, i32 noundef %14, i32 noundef %15, i16 noundef zeroext 0)
  ret void
}

; Function Attrs: null_pointer_is_valid sspstrong uwtable
define internal void @dissect_pcep_rp_obj(ptr noundef %0, ptr noundef %1, ptr noundef %2, i32 noundef %3, i32 noundef %4, i32 noundef %5, i32 noundef %6) #0 {
  %8 = alloca ptr, align 8
  %9 = alloca ptr, align 8
  %10 = alloca ptr, align 8
  %11 = alloca i32, align 4
  %12 = alloca i32, align 4
  %13 = alloca i32, align 4
  %14 = alloca i32, align 4
  %15 = alloca ptr, align 8
  %16 = alloca ptr, align 8
  %17 = alloca i32, align 4
  store ptr %0, ptr %8, align 8
  store ptr %1, ptr %9, align 8
  store ptr %2, ptr %10, align 8
  store i32 %3, ptr %11, align 4
  store i32 %4, ptr %12, align 4
  store i32 %5, ptr %13, align 4
  store i32 %6, ptr %14, align 4
  call void @llvm.lifetime.start.p0(i64 8, ptr %15) #4
  call void @llvm.lifetime.start.p0(i64 8, ptr %16) #4
  %18 = load i32, ptr %12, align 4
  %19 = icmp slt i32 %18, 12
  br i1 %19, label %20, label %28

20:                                               ; preds = %7
  %21 = load ptr, ptr %8, align 8
  %22 = load ptr, ptr %9, align 8
  %23 = load ptr, ptr %10, align 8
  %24 = load i32, ptr %11, align 4
  %25 = load i32, ptr %12, align 4
  %26 = load i32, ptr %12, align 4
  %27 = call ptr (ptr, ptr, ptr, ptr, i32, i32, ptr, ...) @proto_tree_add_expert_format(ptr noundef %21, ptr noundef %22, ptr noundef @ei_pcep_subobject_bad_length, ptr noundef %23, i32 noundef %24, i32 noundef %25, ptr noundef @.str.1144, i32 noundef %26, i32 noundef 12)
  store i32 1, ptr %17, align 4
  br label %142

28:                                               ; preds = %7
  %29 = load ptr, ptr %8, align 8
  %30 = load i32, ptr @hf_pcep_rp_obj_reserved, align 4
  %31 = load ptr, ptr %10, align 8
  %32 = load i32, ptr %11, align 4
  %33 = call ptr @proto_tree_add_item(ptr noundef %29, i32 noundef %30, ptr noundef %31, i32 noundef %32, i32 noundef 1, i32 noundef 0)
  %34 = load ptr, ptr %8, align 8
  %35 = load i32, ptr @hf_pcep_rp_obj_flags, align 4
  %36 = load ptr, ptr %10, align 8
  %37 = load i32, ptr %11, align 4
  %38 = add i32 %37, 1
  %39 = call ptr @proto_tree_add_item(ptr noundef %34, i32 noundef %35, ptr noundef %36, i32 noundef %38, i32 noundef 3, i32 noundef 0)
  store ptr %39, ptr %16, align 8
  %40 = load ptr, ptr %16, align 8
  %41 = load i32, ptr @ett_pcep_obj_request_parameters, align 4
  %42 = call ptr @proto_item_add_subtree(ptr noundef %40, i32 noundef %41)
  store ptr %42, ptr %15, align 8
  %43 = load ptr, ptr %15, align 8
  %44 = load i32, ptr @hf_pcep_rp_flags_reserved, align 4
  %45 = load ptr, ptr %10, align 8
  %46 = load i32, ptr %11, align 4
  %47 = add i32 %46, 1
  %48 = call ptr @proto_tree_add_item(ptr noundef %43, i32 noundef %44, ptr noundef %45, i32 noundef %47, i32 noundef 3, i32 noundef 0)
  %49 = load ptr, ptr %15, align 8
  %50 = load i32, ptr @hf_pcep_rp_flags_c, align 4
  %51 = load ptr, ptr %10, align 8
  %52 = load i32, ptr %11, align 4
  %53 = add i32 %52, 1
  %54 = call ptr @proto_tree_add_item(ptr noundef %49, i32 noundef %50, ptr noundef %51, i32 noundef %53, i32 noundef 3, i32 noundef 0)
  %55 = load ptr, ptr %15, align 8
  %56 = load i32, ptr @hf_pcep_rp_flags_f, align 4
  %57 = load ptr, ptr %10, align 8
  %58 = load i32, ptr %11, align 4
  %59 = add i32 %58, 1
  %60 = call ptr @proto_tree_add_item(ptr noundef %55, i32 noundef %56, ptr noundef %57, i32 noundef %59, i32 noundef 3, i32 noundef 0)
  %61 = load ptr, ptr %15, align 8
  %62 = load i32, ptr @hf_pcep_rp_flags_n, align 4
  %63 = load ptr, ptr %10, align 8
  %64 = load i32, ptr %11, align 4
  %65 = add i32 %64, 1
  %66 = call ptr @proto_tree_add_item(ptr noundef %61, i32 noundef %62, ptr noundef %63, i32 noundef %65, i32 noundef 3, i32 noundef 0)
  %67 = load ptr, ptr %15, align 8
  %68 = load i32, ptr @hf_pcep_rp_flags_e, align 4
  %69 = load ptr, ptr %10, align 8
  %70 = load i32, ptr %11, align 4
  %71 = add i32 %70, 1
  %72 = call ptr @proto_tree_add_item(ptr noundef %67, i32 noundef %68, ptr noundef %69, i32 noundef %71, i32 noundef 3, i32 noundef 0)
  %73 = load ptr, ptr %15, align 8
  %74 = load i32, ptr @hf_pcep_rp_flags_m, align 4
  %75 = load ptr, ptr %10, align 8
  %76 = load i32, ptr %11, align 4
  %77 = add i32 %76, 1
  %78 = call ptr @proto_tree_add_item(ptr noundef %73, i32 noundef %74, ptr noundef %75, i32 noundef %77, i32 noundef 3, i32 noundef 0)
  %79 = load ptr, ptr %15, align 8
  %80 = load i32, ptr @hf_pcep_rp_flags_d, align 4
  %81 = load ptr, ptr %10, align 8
  %82 = load i32, ptr %11, align 4
  %83 = add i32 %82, 1
  %84 = call ptr @proto_tree_add_item(ptr noundef %79, i32 noundef %80, ptr noundef %81, i32 noundef %83, i32 noundef 3, i32 noundef 0)
  %85 = load ptr, ptr %15, align 8
  %86 = load i32, ptr @hf_pcep_rp_flags_p, align 4
  %87 = load ptr, ptr %10, align 8
  %88 = load i32, ptr %11, align 4
  %89 = add i32 %88, 1
  %90 = call ptr @proto_tree_add_item(ptr noundef %85, i32 noundef %86, ptr noundef %87, i32 noundef %89, i32 noundef 3, i32 noundef 0)
  %91 = load ptr, ptr %15, align 8
  %92 = load i32, ptr @hf_pcep_rp_flags_s, align 4
  %93 = load ptr, ptr %10, align 8
  %94 = load i32, ptr %11, align 4
  %95 = add i32 %94, 1
  %96 = call ptr @proto_tree_add_item(ptr noundef %91, i32 noundef %92, ptr noundef %93, i32 noundef %95, i32 noundef 3, i32 noundef 0)
  %97 = load ptr, ptr %15, align 8
  %98 = load i32, ptr @hf_pcep_rp_flags_v, align 4
  %99 = load ptr, ptr %10, align 8
  %100 = load i32, ptr %11, align 4
  %101 = add i32 %100, 1
  %102 = call ptr @proto_tree_add_item(ptr noundef %97, i32 noundef %98, ptr noundef %99, i32 noundef %101, i32 noundef 3, i32 noundef 0)
  %103 = load ptr, ptr %15, align 8
  %104 = load i32, ptr @hf_pcep_rp_flags_o, align 4
  %105 = load ptr, ptr %10, align 8
  %106 = load i32, ptr %11, align 4
  %107 = add i32 %106, 1
  %108 = call ptr @proto_tree_add_item(ptr noundef %103, i32 noundef %104, ptr noundef %105, i32 noundef %107, i32 noundef 3, i32 noundef 0)
  %109 = load ptr, ptr %15, align 8
  %110 = load i32, ptr @hf_pcep_rp_flags_b, align 4
  %111 = load ptr, ptr %10, align 8
  %112 = load i32, ptr %11, align 4
  %113 = add i32 %112, 1
  %114 = call ptr @proto_tree_add_item(ptr noundef %109, i32 noundef %110, ptr noundef %111, i32 noundef %113, i32 noundef 3, i32 noundef 0)
  %115 = load ptr, ptr %15, align 8
  %116 = load i32, ptr @hf_pcep_rp_flags_r, align 4
  %117 = load ptr, ptr %10, align 8
  %118 = load i32, ptr %11, align 4
  %119 = add i32 %118, 1
  %120 = call ptr @proto_tree_add_item(ptr noundef %115, i32 noundef %116, ptr noundef %117, i32 noundef %119, i32 noundef 3, i32 noundef 0)
  %121 = load ptr, ptr %15, align 8
  %122 = load i32, ptr @hf_pcep_rp_flags_pri, align 4
  %123 = load ptr, ptr %10, align 8
  %124 = load i32, ptr %11, align 4
  %125 = add i32 %124, 1
  %126 = call ptr @proto_tree_add_item(ptr noundef %121, i32 noundef %122, ptr noundef %123, i32 noundef %125, i32 noundef 3, i32 noundef 0)
  %127 = load ptr, ptr %8, align 8
  %128 = load i32, ptr @hf_pcep_rp_obj_requested_id_number, align 4
  %129 = load ptr, ptr %10, align 8
  %130 = load i32, ptr %11, align 4
  %131 = add i32 %130, 4
  %132 = call ptr @proto_tree_add_item(ptr noundef %127, i32 noundef %128, ptr noundef %129, i32 noundef %131, i32 noundef 4, i32 noundef 0)
  %133 = load i32, ptr %11, align 4
  %134 = add i32 %133, 8
  store i32 %134, ptr %11, align 4
  %135 = load i32, ptr %12, align 4
  %136 = sub i32 %135, 12
  store i32 %136, ptr %12, align 4
  %137 = load ptr, ptr %8, align 8
  %138 = load ptr, ptr %10, align 8
  %139 = load i32, ptr %11, align 4
  %140 = load i32, ptr %12, align 4
  %141 = load i32, ptr @ett_pcep_obj_request_parameters, align 4
  call void @dissect_pcep_tlvs(ptr noundef %137, ptr noundef %138, i32 noundef %139, i32 noundef %140, i32 noundef %141)
  store i32 0, ptr %17, align 4
  br label %142

142:                                              ; preds = %28, %20
  call void @llvm.lifetime.end.p0(i64 8, ptr %16) #4
  call void @llvm.lifetime.end.p0(i64 8, ptr %15) #4
  %143 = load i32, ptr %17, align 4
  switch i32 %143, label %145 [
    i32 0, label %144
    i32 1, label %144
  ]

144:                                              ; preds = %142, %142
  ret void

145:                                              ; preds = %142
  unreachable
}