; Function Attrs: null_pointer_is_valid sspstrong uwtable
define internal void @dissect_pcep_rp_obj(ptr noundef %0, ptr noundef %1, ptr noundef %2, i32 noundef %3, i32 noundef %4, i32 %5, i32 %6) #0 {
  %8 = icmp slt i32 %4, 12
  br i1 %8, label %9, label %11

9:                                                ; preds = %7
  %10 = tail call ptr (ptr, ptr, ptr, ptr, i32, i32, ptr, ...) @proto_tree_add_expert_format(ptr noundef %0, ptr noundef %1, ptr noundef nonnull @ei_pcep_subobject_bad_length, ptr noundef %2, i32 noundef %3, i32 noundef %4, ptr noundef nonnull @.str.1144, i32 noundef %4, i32 noundef 12)
  br label %53

11:                                               ; preds = %7
  %12 = load i32, ptr @hf_pcep_rp_obj_reserved, align 4
  %13 = tail call ptr @proto_tree_add_item(ptr noundef %0, i32 noundef %12, ptr noundef %2, i32 noundef %3, i32 noundef 1, i32 noundef 0)
  %14 = load i32, ptr @hf_pcep_rp_obj_flags, align 4
  %15 = add i32 %3, 1
  %16 = tail call ptr @proto_tree_add_item(ptr noundef %0, i32 noundef %14, ptr noundef %2, i32 noundef %15, i32 noundef 3, i32 noundef 0)
  %17 = load i32, ptr @ett_pcep_obj_request_parameters, align 4
  %18 = tail call ptr @proto_item_add_subtree(ptr noundef %16, i32 noundef %17)
  %19 = load i32, ptr @hf_pcep_rp_flags_reserved, align 4
  %20 = tail call ptr @proto_tree_add_item(ptr noundef %18, i32 noundef %19, ptr noundef %2, i32 noundef %15, i32 noundef 3, i32 noundef 0)
  %21 = load i32, ptr @hf_pcep_rp_flags_c, align 4
  %22 = tail call ptr @proto_tree_add_item(ptr noundef %18, i32 noundef %21, ptr noundef %2, i32 noundef %15, i32 noundef 3, i32 noundef 0)
  %23 = load i32, ptr @hf_pcep_rp_flags_f, align 4
  %24 = tail call ptr @proto_tree_add_item(ptr noundef %18, i32 noundef %23, ptr noundef %2, i32 noundef %15, i32 noundef 3, i32 noundef 0)
  %25 = load i32, ptr @hf_pcep_rp_flags_n, align 4
  %26 = tail call ptr @proto_tree_add_item(ptr noundef %18, i32 noundef %25, ptr noundef %2, i32 noundef %15, i32 noundef 3, i32 noundef 0)
  %27 = load i32, ptr @hf_pcep_rp_flags_e, align 4
  %28 = tail call ptr @proto_tree_add_item(ptr noundef %18, i32 noundef %27, ptr noundef %2, i32 noundef %15, i32 noundef 3, i32 noundef 0)
  %29 = load i32, ptr @hf_pcep_rp_flags_m, align 4
  %30 = tail call ptr @proto_tree_add_item(ptr noundef %18, i32 noundef %29, ptr noundef %2, i32 noundef %15, i32 noundef 3, i32 noundef 0)
  %31 = load i32, ptr @hf_pcep_rp_flags_d, align 4
  %32 = tail call ptr @proto_tree_add_item(ptr noundef %18, i32 noundef %31, ptr noundef %2, i32 noundef %15, i32 noundef 3, i32 noundef 0)
  %33 = load i32, ptr @hf_pcep_rp_flags_p, align 4
  %34 = tail call ptr @proto_tree_add_item(ptr noundef %18, i32 noundef %33, ptr noundef %2, i32 noundef %15, i32 noundef 3, i32 noundef 0)
  %35 = load i32, ptr @hf_pcep_rp_flags_s, align 4
  %36 = tail call ptr @proto_tree_add_item(ptr noundef %18, i32 noundef %35, ptr noundef %2, i32 noundef %15, i32 noundef 3, i32 noundef 0)
  %37 = load i32, ptr @hf_pcep_rp_flags_v, align 4
  %38 = tail call ptr @proto_tree_add_item(ptr noundef %18, i32 noundef %37, ptr noundef %2, i32 noundef %15, i32 noundef 3, i32 noundef 0)
  %39 = load i32, ptr @hf_pcep_rp_flags_o, align 4
  %40 = tail call ptr @proto_tree_add_item(ptr noundef %18, i32 noundef %39, ptr noundef %2, i32 noundef %15, i32 noundef 3, i32 noundef 0)
  %41 = load i32, ptr @hf_pcep_rp_flags_b, align 4
  %42 = tail call ptr @proto_tree_add_item(ptr noundef %18, i32 noundef %41, ptr noundef %2, i32 noundef %15, i32 noundef 3, i32 noundef 0)
  %43 = load i32, ptr @hf_pcep_rp_flags_r, align 4
  %44 = tail call ptr @proto_tree_add_item(ptr noundef %18, i32 noundef %43, ptr noundef %2, i32 noundef %15, i32 noundef 3, i32 noundef 0)
  %45 = load i32, ptr @hf_pcep_rp_flags_pri, align 4
  %46 = tail call ptr @proto_tree_add_item(ptr noundef %18, i32 noundef %45, ptr noundef %2, i32 noundef %15, i32 noundef 3, i32 noundef 0)
  %47 = load i32, ptr @hf_pcep_rp_obj_requested_id_number, align 4
  %48 = add i32 %3, 4
  %49 = tail call ptr @proto_tree_add_item(ptr noundef %0, i32 noundef %47, ptr noundef %2, i32 noundef %48, i32 noundef 4, i32 noundef 0)
  %50 = add i32 %3, 8
  %51 = add nsw i32 %4, -12
  %52 = load i32, ptr @ett_pcep_obj_request_parameters, align 4
  tail call fastcc void @dissect_pcep_tlvs_with_scope(ptr noundef %0, ptr noundef %2, i32 noundef %50, i32 noundef range(i32 0, 2147483640) %51, i32 noundef %52, i16 noundef zeroext 0)
  br label %53

53:                                               ; preds = %11, %9
  ret void
}